(lp0
S'Bomb Rush Burst Bomb'
p1
aS'Bomb Rush Seeker'
p2
aS'Bomb Rush Splat Bomb'
p3
aS'Bomb Rush Suction Bomb'
p4
aS'Bubbler'
p5
aS'Echolocator'
p6
aS'Inkstrike'
p7
aS'Inkzooka'
p8
aS'Killer Wail'
p9
aS'Kraken'
p10
a.