(lp0
S'.52 Gal Deco'
p1
aS'.52 Gal'
p2
aS'.96 Gal Deco'
p3
aS'.96 Gal'
p4
aS'Aerospray MG'
p5
aS'Aerospray RG'
p6
aS'Bamboozler 14 Mk I'
p7
aS'Bamboozler 14 Mk II'
p8
aS'Blaster'
p9
aS'Carbon Roller Deco'
p10
aS'Carbon Roller'
p11
aS'Classic Squiffer'
p12
aS'Custom Blaster'
p13
aS'Custom Dual Squelcher'
p14
aS'Custom E-liter 3K Scope'
p15
aS'Custom E-liter 3K'
p16
aS'Custom Hydra Splatling'
p17
aS'Custom Jet Squelcher'
p18
aS'Custom Range Blaster'
p19
aS'Custom Splattershot Jr.'
p20
aS'Dual Squelcher'
p21
aS'Dynamo Roller'
p22
aS'E-liter 3K Scope'
p23
aS'E-liter 3K'
p24
aS'Forge Splattershot Pro'
p25
aS'Gold Dynamo Roller'
p26
aS'H-3 Nozzlenose D'
p27
aS'H-3 Nozzlenose'
p28
aS'Heavy Splatling Deco'
p29
aS'Heavy Splatling'
p30
aS'Hero Charger Replica'
p31
aS'Hero Roller Replica'
p32
aS'Hero Shot Replica'
p33
aS'Hydra Splatling'
p34
aS'Inkbrush Nouveau'
p35
aS'Inkbrush'
p36
aS'Jet Squelcher'
p37
aS'Kelp Splat Charger'
p38
aS'Kelp Splatterscope'
p39
aS'Krak-On Splat Roller'
p40
aS'L-3 Nozzlenose D'
p41
aS'L-3 Nozzlenose'
p42
aS'Luna Blaster Neo'
p43
aS'Luna Blaster'
p44
aS'Mini Splatling'
p45
aS"N-ZAP '85"
p46
aS"N-ZAP '89"
p47
aS'Neo Splash-o-matic'
p48
aS'Neo Sploosh-o-matic'
p49
aS'New Squiffer'
p50
aS'Octobrush Nouveau'
p51
aS'Octobrush'
p52
aS'Octoshot Replica'
p53
aS'Range Blaster'
p54
aS'Rapid Blaster Deco'
p55
aS'Rapid Blaster Pro Deco'
p56
aS'Rapid Blaster Pro'
p57
aS'Rapid Blaster'
p58
aS'Slosher Deco'
p59
aS'Slosher'
p60
aS'Sloshing Machine Neo'
p61
aS'Sloshing Machine'
p62
aS'Splash-o-matic'
p63
aS'Splat Charger'
p64
aS'Splat Roller'
p65
aS'Splatterscope'
p66
aS'Splattershot Jr.'
p67
aS'Splattershot Pro'
p68
aS'Splattershot'
p69
aS'Sploosh-o-matic'
p70
aS'Tentatek Splattershot'
p71
aS'Tri-Slosher Nouveau'
p72
aS'Tri-Slosher'
p73
aS'Zink Mini Splatling'
p74
a.